; Function Attrs: mustprogress uwtable
define void @_ZN7rocksdb18SeqnoToTimeMapping13SeqnoTimePair6DecodeERNS_5SliceE(ptr dead_on_unwind noalias writable sret(%"class.rocksdb::Status") align 8 %0, ptr noundef nonnull align 8 dereferenceable(16) %1, ptr noundef nonnull align 8 captures(none) dereferenceable(16) %2) local_unnamed_addr #6 align 2 personality ptr @__gxx_personality_v0 {
  %4 = alloca %"class.rocksdb::Slice", align 8
  %5 = alloca %"class.rocksdb::Slice", align 8
  %6 = alloca %"class.rocksdb::Slice", align 8
  %7 = alloca %"class.rocksdb::Slice", align 8
  %8 = load ptr, ptr %2, align 8, !tbaa !259
  %9 = getelementptr inbounds nuw i8, ptr %2, i64 8
  %10 = load i64, ptr %9, align 8, !tbaa !261
  %11 = getelementptr inbounds nuw i8, ptr %8, i64 %10
  %12 = tail call noundef ptr @_ZN7rocksdb14GetVarint64PtrEPKcS1_Pm(ptr noundef %8, ptr noundef %11, ptr noundef nonnull %1)
  %.not = icmp eq ptr %12, null
  br i1 %.not, label %_ZN7rocksdb11GetVarint64EPNS_5SliceEPm.exit, label %15

_ZN7rocksdb11GetVarint64EPNS_5SliceEPm.exit:      ; preds = %3
  call void @llvm.lifetime.start.p0(i64 16, ptr nonnull %4) #27
  store ptr @.str, ptr %4, align 8, !tbaa !259
  %13 = getelementptr inbounds nuw i8, ptr %4, i64 8
  store i64 23, ptr %13, align 8, !tbaa !261
  call void @llvm.lifetime.start.p0(i64 16, ptr nonnull %5) #27
  store ptr @.str.9, ptr %5, align 8, !tbaa !259
  %14 = getelementptr inbounds nuw i8, ptr %5, i64 8
  store i64 0, ptr %14, align 8, !tbaa !261
  call void @_ZN7rocksdb6StatusC2ENS0_4CodeENS0_7SubCodeERKNS_5SliceES5_NS0_8SeverityE(ptr noundef nonnull align 8 dereferenceable(16) %0, i8 noundef zeroext 2, i8 noundef zeroext 0, ptr noundef nonnull align 8 dereferenceable(16) %4, ptr noundef nonnull align 8 dereferenceable(16) %5, i8 noundef zeroext 0)
  call void @llvm.lifetime.end.p0(i64 16, ptr nonnull %5) #27
  call void @llvm.lifetime.end.p0(i64 16, ptr nonnull %4) #27
  br label %28

15:                                               ; preds = %3
  %16 = ptrtoint ptr %11 to i64
  %17 = ptrtoint ptr %12 to i64
  %18 = sub i64 %16, %17
  store ptr %12, ptr %2, align 8, !tbaa !262
  store i64 %18, ptr %9, align 8, !tbaa !113
  %19 = getelementptr inbounds nuw i8, ptr %1, i64 8
  %20 = getelementptr inbounds nuw i8, ptr %12, i64 %18
  %21 = tail call noundef ptr @_ZN7rocksdb14GetVarint64PtrEPKcS1_Pm(ptr noundef nonnull %12, ptr noundef nonnull %20, ptr noundef nonnull %19)
  %.not4 = icmp eq ptr %21, null
  br i1 %.not4, label %_ZN7rocksdb11GetVarint64EPNS_5SliceEPm.exit3, label %24

_ZN7rocksdb11GetVarint64EPNS_5SliceEPm.exit3:     ; preds = %15
  call void @llvm.lifetime.start.p0(i64 16, ptr nonnull %6) #27
  store ptr @.str.2, ptr %6, align 8, !tbaa !259
  %22 = getelementptr inbounds nuw i8, ptr %6, i64 8
  store i64 12, ptr %22, align 8, !tbaa !261
  call void @llvm.lifetime.start.p0(i64 16, ptr nonnull %7) #27
  store ptr @.str.9, ptr %7, align 8, !tbaa !259
  %23 = getelementptr inbounds nuw i8, ptr %7, i64 8
  store i64 0, ptr %23, align 8, !tbaa !261
  call void @_ZN7rocksdb6StatusC2ENS0_4CodeENS0_7SubCodeERKNS_5SliceES5_NS0_8SeverityE(ptr noundef nonnull align 8 dereferenceable(16) %0, i8 noundef zeroext 2, i8 noundef zeroext 0, ptr noundef nonnull align 8 dereferenceable(16) %6, ptr noundef nonnull align 8 dereferenceable(16) %7, i8 noundef zeroext 0)
  call void @llvm.lifetime.end.p0(i64 16, ptr nonnull %7) #27
  call void @llvm.lifetime.end.p0(i64 16, ptr nonnull %6) #27
  br label %28

24:                                               ; preds = %15
  %25 = ptrtoint ptr %21 to i64
  %26 = sub i64 %16, %25
  store ptr %21, ptr %2, align 8, !tbaa !262
  store i64 %26, ptr %9, align 8, !tbaa !113
  %27 = getelementptr inbounds nuw i8, ptr %0, i64 8
  store ptr null, ptr %27, align 8, !tbaa !254, !alias.scope !287
  tail call void @llvm.memset.p0.i64(ptr noundef nonnull align 8 dereferenceable(16) %0, i8 0, i64 6, i1 false), !alias.scope !287
  br label %28

28:                                               ; preds = %24, %_ZN7rocksdb11GetVarint64EPNS_5SliceEPm.exit3, %_ZN7rocksdb11GetVarint64EPNS_5SliceEPm.exit
  ret void
}